; Function Attrs: nounwind uwtable
define range(i32 0, 2) i32 @tls1_new(ptr noundef %0) local_unnamed_addr #2 {
  %2 = tail call i32 @ssl3_new(ptr noundef %0) #14
  %.not = icmp eq i32 %2, 0
  br i1 %.not, label %9, label %3

3:                                                ; preds = %1
  %4 = getelementptr inbounds nuw i8, ptr %0, i64 24
  %5 = load ptr, ptr %4, align 8, !tbaa !3
  %6 = getelementptr inbounds nuw i8, ptr %5, i64 48
  %7 = load ptr, ptr %6, align 8, !tbaa !15
  %8 = tail call i32 %7(ptr noundef %0) #14
  %.not3 = icmp ne i32 %8, 0
  %. = zext i1 %.not3 to i32
  br label %9

9:                                                ; preds = %3, %1
  %.0 = phi i32 [ 0, %1 ], [ %., %3 ]
  ret i32 %.0
}